; Function Attrs: mustprogress nounwind uwtable
define hidden noundef ptr @_ZN14JfrJavaSupport21new_java_lang_BooleanEbP10JavaThread(i1 noundef zeroext %0, ptr noundef %1) local_unnamed_addr #0 align 2 {
  %3 = alloca %class.JavaValue, align 8
  %4 = alloca %class.JfrJavaArguments, align 8
  store i8 12, ptr %3, align 8
  call void @_ZN16JfrJavaArgumentsC1EP9JavaValuePKcS3_S3_P10JavaThread(ptr noundef nonnull align 8 dereferenceable(300) %4, ptr noundef nonnull %3, ptr noundef nonnull @.str.6, ptr noundef nonnull @.str.4, ptr noundef nonnull @.str.7, ptr noundef %1) #13
  %5 = getelementptr inbounds i8, ptr %1, i64 8
  %6 = load ptr, ptr %5, align 8
  %.not = icmp eq ptr %6, null
  br i1 %.not, label %7, label %22

7:                                                ; preds = %2
  %8 = zext i1 %0 to i32
  call void @_ZN16JfrJavaArguments8push_intEi(ptr noundef nonnull align 8 dereferenceable(300) %4, i32 noundef %8) #13
  %9 = call noundef ptr @_ZNK16JfrJavaArguments6resultEv(ptr noundef nonnull align 8 dereferenceable(300) %4) #13
  call fastcc void @_ZL13create_objectP16JfrJavaArgumentsP9JavaValueP10JavaThread(ptr noundef nonnull %4, ptr noundef %9, ptr noundef nonnull %1)
  %10 = load ptr, ptr %5, align 8
  %.not.i = icmp eq ptr %10, null
  br i1 %.not.i, label %11, label %_ZN14JfrJavaSupport20new_object_local_refEP16JfrJavaArgumentsP10JavaThread.exit

11:                                               ; preds = %7
  %12 = getelementptr inbounds i8, ptr %9, i64 8
  %13 = load ptr, ptr %12, align 8
  %14 = icmp eq ptr %13, null
  br i1 %14, label %_ZN14JfrJavaSupport20new_object_local_refEP16JfrJavaArgumentsP10JavaThread.exit, label %15

15:                                               ; preds = %11
  %16 = getelementptr inbounds i8, ptr %1, i64 1072
  %17 = load ptr, ptr %16, align 8
  %18 = call noundef ptr @_ZN14JNIHandleBlock15allocate_handleEP10JavaThreadP7oopDescN17AllocFailStrategy13AllocFailEnumE(ptr noundef nonnull align 8 dereferenceable(296) %17, ptr noundef nonnull %1, ptr noundef nonnull %13, i32 noundef 0) #13
  store ptr %18, ptr %12, align 8
  br label %_ZN14JfrJavaSupport20new_object_local_refEP16JfrJavaArgumentsP10JavaThread.exit

_ZN14JfrJavaSupport20new_object_local_refEP16JfrJavaArgumentsP10JavaThread.exit: ; preds = %7, %11, %15
  %19 = call noundef ptr @_ZNK16JfrJavaArguments6resultEv(ptr noundef nonnull align 8 dereferenceable(300) %4) #13
  %20 = getelementptr inbounds i8, ptr %19, i64 8
  %21 = load ptr, ptr %20, align 8
  br label %22

22:                                               ; preds = %2, %_ZN14JfrJavaSupport20new_object_local_refEP16JfrJavaArgumentsP10JavaThread.exit
  %.0 = phi ptr [ %21, %_ZN14JfrJavaSupport20new_object_local_refEP16JfrJavaArgumentsP10JavaThread.exit ], [ null, %2 ]
  ret ptr %.0
}